target datalayout = "e-m:e-p270:32:32-p271:32:32-p272:64:64-i64:64-i128:128-f80:128-n8:16:32:64-S128"
target triple = "x86_64-pc-linux-gnu"

@Ifd_ManComputeMatches.pMatches = internal global [100 x i32] zeroinitializer, align 16

; Function Attrs: nounwind uwtable
define ptr @Ifd_ManComputeMatches(ptr noundef %0) #0 {
  %2 = alloca ptr, align 8
  %3 = alloca [16 x i32], align 16
  %4 = alloca i32, align 4
  %5 = alloca i32, align 4
  store ptr %0, ptr %2, align 8, !tbaa !80
  call void @llvm.lifetime.start.p0(i64 64, ptr %3) #12
  call void @llvm.lifetime.start.p0(i64 4, ptr %4) #12
  call void @llvm.lifetime.start.p0(i64 4, ptr %5) #12
  store i32 0, ptr %5, align 4, !tbaa !24
  store i32 0, ptr %4, align 4, !tbaa !24
  br label %6

6:                                                ; preds = %97, %1
  %7 = load ptr, ptr %2, align 8, !tbaa !80
  %8 = load i32, ptr %4, align 4, !tbaa !24
  %9 = sext i32 %8 to i64
  %10 = getelementptr inbounds i8, ptr %7, i64 %9
  %11 = load i8, ptr %10, align 1, !tbaa !53
  %12 = icmp ne i8 %11, 0
  br i1 %12, label %13, label %100

13:                                               ; preds = %6
  %14 = load i32, ptr %4, align 4, !tbaa !24
  %15 = sext i32 %14 to i64
  %16 = getelementptr inbounds [100 x i32], ptr @Ifd_ManComputeMatches.pMatches, i64 0, i64 %15
  store i32 0, ptr %16, align 4, !tbaa !24
  %17 = load ptr, ptr %2, align 8, !tbaa !80
  %18 = load i32, ptr %4, align 4, !tbaa !24
  %19 = sext i32 %18 to i64
  %20 = getelementptr inbounds i8, ptr %17, i64 %19
  %21 = load i8, ptr %20, align 1, !tbaa !53
  %22 = sext i8 %21 to i32
  %23 = icmp eq i32 %22, 40
  br i1 %23, label %48, label %24

24:                                               ; preds = %13
  %25 = load ptr, ptr %2, align 8, !tbaa !80
  %26 = load i32, ptr %4, align 4, !tbaa !24
  %27 = sext i32 %26 to i64
  %28 = getelementptr inbounds i8, ptr %25, i64 %27
  %29 = load i8, ptr %28, align 1, !tbaa !53
  %30 = sext i8 %29 to i32
  %31 = icmp eq i32 %30, 91
  br i1 %31, label %48, label %32

32:                                               ; preds = %24
  %33 = load ptr, ptr %2, align 8, !tbaa !80
  %34 = load i32, ptr %4, align 4, !tbaa !24
  %35 = sext i32 %34 to i64
  %36 = getelementptr inbounds i8, ptr %33, i64 %35
  %37 = load i8, ptr %36, align 1, !tbaa !53
  %38 = sext i8 %37 to i32
  %39 = icmp eq i32 %38, 60
  br i1 %39, label %48, label %40

40:                                               ; preds = %32
  %41 = load ptr, ptr %2, align 8, !tbaa !80
  %42 = load i32, ptr %4, align 4, !tbaa !24
  %43 = sext i32 %42 to i64
  %44 = getelementptr inbounds i8, ptr %41, i64 %43
  %45 = load i8, ptr %44, align 1, !tbaa !53
  %46 = sext i8 %45 to i32
  %47 = icmp eq i32 %46, 123
  br i1 %47, label %48, label %54

48:                                               ; preds = %40, %32, %24, %13
  %49 = load i32, ptr %4, align 4, !tbaa !24
  %50 = load i32, ptr %5, align 4, !tbaa !24
  %51 = add nsw i32 %50, 1
  store i32 %51, ptr %5, align 4, !tbaa !24
  %52 = sext i32 %50 to i64
  %53 = getelementptr inbounds [16 x i32], ptr %3, i64 0, i64 %52
  store i32 %49, ptr %53, align 4, !tbaa !24
  br label %96

54:                                               ; preds = %40
  %55 = load ptr, ptr %2, align 8, !tbaa !80
  %56 = load i32, ptr %4, align 4, !tbaa !24
  %57 = sext i32 %56 to i64
  %58 = getelementptr inbounds i8, ptr %55, i64 %57
  %59 = load i8, ptr %58, align 1, !tbaa !53
  %60 = sext i8 %59 to i32
  %61 = icmp eq i32 %60, 41
  br i1 %61, label %86, label %62

62:                                               ; preds = %54
  %63 = load ptr, ptr %2, align 8, !tbaa !80
  %64 = load i32, ptr %4, align 4, !tbaa !24
  %65 = sext i32 %64 to i64
  %66 = getelementptr inbounds i8, ptr %63, i64 %65
  %67 = load i8, ptr %66, align 1, !tbaa !53
  %68 = sext i8 %67 to i32
  %69 = icmp eq i32 %68, 93
  br i1 %69, label %86, label %70

70:                                               ; preds = %62
  %71 = load ptr, ptr %2, align 8, !tbaa !80
  %72 = load i32, ptr %4, align 4, !tbaa !24
  %73 = sext i32 %72 to i64
  %74 = getelementptr inbounds i8, ptr %71, i64 %73
  %75 = load i8, ptr %74, align 1, !tbaa !53
  %76 = sext i8 %75 to i32
  %77 = icmp eq i32 %76, 62
  br i1 %77, label %86, label %78

78:                                               ; preds = %70
  %79 = load ptr, ptr %2, align 8, !tbaa !80
  %80 = load i32, ptr %4, align 4, !tbaa !24
  %81 = sext i32 %80 to i64
  %82 = getelementptr inbounds i8, ptr %79, i64 %81
  %83 = load i8, ptr %82, align 1, !tbaa !53
  %84 = sext i8 %83 to i32
  %85 = icmp eq i32 %84, 125
  br i1 %85, label %86, label %95

86:                                               ; preds = %78, %70, %62, %54
  %87 = load i32, ptr %4, align 4, !tbaa !24
  %88 = load i32, ptr %5, align 4, !tbaa !24
  %89 = add nsw i32 %88, -1
  store i32 %89, ptr %5, align 4, !tbaa !24
  %90 = sext i32 %89 to i64
  %91 = getelementptr inbounds [16 x i32], ptr %3, i64 0, i64 %90
  %92 = load i32, ptr %91, align 4, !tbaa !24
  %93 = sext i32 %92 to i64
  %94 = getelementptr inbounds [100 x i32], ptr @Ifd_ManComputeMatches.pMatches, i64 0, i64 %93
  store i32 %87, ptr %94, align 4, !tbaa !24
  br label %95

95:                                               ; preds = %86, %78
  br label %96

96:                                               ; preds = %95, %48
  br label %97

97:                                               ; preds = %96
  %98 = load i32, ptr %4, align 4, !tbaa !24
  %99 = add nsw i32 %98, 1
  store i32 %99, ptr %4, align 4, !tbaa !24
  br label %6, !llvm.loop !86

100:                                              ; preds = %6
  call void @llvm.lifetime.end.p0(i64 4, ptr %5) #12
  call void @llvm.lifetime.end.p0(i64 4, ptr %4) #12
  call void @llvm.lifetime.end.p0(i64 64, ptr %3) #12
  ret ptr @Ifd_ManComputeMatches.pMatches
}